; ModuleID = '14/1433.c'
source_filename = "14/1433.c"
target datalayout = "e-m:e-p270:32:32-p271:32:32-p272:64:64-i64:64-f80:128-n8:16:32:64-S128"
target triple = "x86_64-pc-linux-gnu"

%struct.student = type { i32, i32, i32, %struct.student* }

@.str = private unnamed_addr constant [3 x i8] c"%d\00", align 1
@.str.1 = private unnamed_addr constant [7 x i8] c"%d%d%d\00", align 1
@.str.2 = private unnamed_addr constant [7 x i8] c"%d %d\0A\00", align 1

; Function Attrs: noinline nounwind uwtable
define dso_local void @main() #0 {
  %1 = alloca %struct.student*, align 8
  %2 = alloca %struct.student*, align 8
  %3 = alloca %struct.student*, align 8
  %4 = alloca i32, align 4
  %5 = alloca i32, align 4
  %6 = alloca i32, align 4
  %7 = call i32 (i8*, ...) @__isoc99_scanf(i8* getelementptr inbounds ([3 x i8], [3 x i8]* @.str, i64 0, i64 0), i32* %6)
  store %struct.student* null, %struct.student** %1, align 8
  store %struct.student* null, %struct.student** %3, align 8
  store %struct.student* null, %struct.student** %2, align 8
  store i32 0, i32* %4, align 4
  br label %8

8:                                                ; preds = %32, %0
  %9 = load i32, i32* %4, align 4
  %10 = load i32, i32* %6, align 4
  %11 = icmp slt i32 %9, %10
  br i1 %11, label %12, label %35

12:                                               ; preds = %8
  %13 = call noalias i8* @malloc(i64 100) #3
  %14 = bitcast i8* %13 to %struct.student*
  store %struct.student* %14, %struct.student** %2, align 8
  %15 = load %struct.student*, %struct.student** %2, align 8
  %16 = getelementptr inbounds %struct.student, %struct.student* %15, i32 0, i32 0
  %17 = load %struct.student*, %struct.student** %2, align 8
  %18 = getelementptr inbounds %struct.student, %struct.student* %17, i32 0, i32 1
  %19 = load %struct.student*, %struct.student** %2, align 8
  %20 = getelementptr inbounds %struct.student, %struct.student* %19, i32 0, i32 2
  %21 = call i32 (i8*, ...) @__isoc99_scanf(i8* getelementptr inbounds ([7 x i8], [7 x i8]* @.str.1, i64 0, i64 0), i32* %16, i32* %18, i32* %20)
  %22 = load i32, i32* %4, align 4
  %23 = icmp eq i32 %22, 0
  br i1 %23, label %24, label %26

24:                                               ; preds = %12
  %25 = load %struct.student*, %struct.student** %2, align 8
  store %struct.student* %25, %struct.student** %1, align 8
  br label %30

26:                                               ; preds = %12
  %27 = load %struct.student*, %struct.student** %2, align 8
  %28 = load %struct.student*, %struct.student** %3, align 8
  %29 = getelementptr inbounds %struct.student, %struct.student* %28, i32 0, i32 3
  store %struct.student* %27, %struct.student** %29, align 8
  br label %30

30:                                               ; preds = %26, %24
  %31 = load %struct.student*, %struct.student** %2, align 8
  store %struct.student* %31, %struct.student** %3, align 8
  br label %32

32:                                               ; preds = %30
  %33 = load i32, i32* %4, align 4
  %34 = add nsw i32 %33, 1
  store i32 %34, i32* %4, align 4
  br label %8

35:                                               ; preds = %8
  %36 = load %struct.student*, %struct.student** %3, align 8
  %37 = getelementptr inbounds %struct.student, %struct.student* %36, i32 0, i32 3
  store %struct.student* null, %struct.student** %37, align 8
  store i32 0, i32* %4, align 4
  br label %38

38:                                               ; preds = %99, %35
  %39 = load i32, i32* %4, align 4
  %40 = icmp slt i32 %39, 3
  br i1 %40, label %41, label %102

41:                                               ; preds = %38
  %42 = load %struct.student*, %struct.student** %1, align 8
  store %struct.student* %42, %struct.student** %3, align 8
  store %struct.student* %42, %struct.student** %2, align 8
  %43 = load %struct.student*, %struct.student** %2, align 8
  %44 = getelementptr inbounds %struct.student, %struct.student* %43, i32 0, i32 1
  %45 = load i32, i32* %44, align 4
  %46 = load %struct.student*, %struct.student** %2, align 8
  %47 = getelementptr inbounds %struct.student, %struct.student* %46, i32 0, i32 2
  %48 = load i32, i32* %47, align 8
  %49 = add nsw i32 %45, %48
  store i32 %49, i32* %5, align 4
  br label %50

50:                                               ; preds = %72, %41
  %51 = load %struct.student*, %struct.student** %2, align 8
  %52 = icmp ne %struct.student* %51, null
  br i1 %52, label %53, label %76

53:                                               ; preds = %50
  %54 = load %struct.student*, %struct.student** %2, align 8
  %55 = getelementptr inbounds %struct.student, %struct.student* %54, i32 0, i32 1
  %56 = load i32, i32* %55, align 4
  %57 = load %struct.student*, %struct.student** %2, align 8
  %58 = getelementptr inbounds %struct.student, %struct.student* %57, i32 0, i32 2
  %59 = load i32, i32* %58, align 8
  %60 = add nsw i32 %56, %59
  %61 = load i32, i32* %5, align 4
  %62 = icmp sgt i32 %60, %61
  br i1 %62, label %63, label %72

63:                                               ; preds = %53
  %64 = load %struct.student*, %struct.student** %2, align 8
  %65 = getelementptr inbounds %struct.student, %struct.student* %64, i32 0, i32 1
  %66 = load i32, i32* %65, align 4
  %67 = load %struct.student*, %struct.student** %2, align 8
  %68 = getelementptr inbounds %struct.student, %struct.student* %67, i32 0, i32 2
  %69 = load i32, i32* %68, align 8
  %70 = add nsw i32 %66, %69
  store i32 %70, i32* %5, align 4
  %71 = load %struct.student*, %struct.student** %2, align 8
  store %struct.student* %71, %struct.student** %3, align 8
  br label %72

72:                                               ; preds = %63, %53
  %73 = load %struct.student*, %struct.student** %2, align 8
  %74 = getelementptr inbounds %struct.student, %struct.student* %73, i32 0, i32 3
  %75 = load %struct.student*, %struct.student** %74, align 8
  store %struct.student* %75, %struct.student** %2, align 8
  br label %50

76:                                               ; preds = %50
  %77 = load %struct.student*, %struct.student** %3, align 8
  %78 = getelementptr inbounds %struct.student, %struct.student* %77, i32 0, i32 0
  %79 = load i32, i32* %78, align 8
  %80 = load i32, i32* %5, align 4
  %81 = call i32 (i8*, ...) @printf(i8* getelementptr inbounds ([7 x i8], [7 x i8]* @.str.2, i64 0, i64 0), i32 %79, i32 %80)
  %82 = load %struct.student*, %struct.student** %1, align 8
  store %struct.student* %82, %struct.student** %2, align 8
  br label %83

83:                                               ; preds = %89, %76
  %84 = load %struct.student*, %struct.student** %2, align 8
  %85 = getelementptr inbounds %struct.student, %struct.student* %84, i32 0, i32 3
  %86 = load %struct.student*, %struct.student** %85, align 8
  %87 = load %struct.student*, %struct.student** %3, align 8
  %88 = icmp ne %struct.student* %86, %87
  br i1 %88, label %89, label %93

89:                                               ; preds = %83
  %90 = load %struct.student*, %struct.student** %2, align 8
  %91 = getelementptr inbounds %struct.student, %struct.student* %90, i32 0, i32 3
  %92 = load %struct.student*, %struct.student** %91, align 8
  store %struct.student* %92, %struct.student** %2, align 8
  br label %83

93:                                               ; preds = %83
  %94 = load %struct.student*, %struct.student** %3, align 8
  %95 = getelementptr inbounds %struct.student, %struct.student* %94, i32 0, i32 3
  %96 = load %struct.student*, %struct.student** %95, align 8
  %97 = load %struct.student*, %struct.student** %2, align 8
  %98 = getelementptr inbounds %struct.student, %struct.student* %97, i32 0, i32 3
  store %struct.student* %96, %struct.student** %98, align 8
  br label %99

99:                                               ; preds = %93
  %100 = load i32, i32* %4, align 4
  %101 = add nsw i32 %100, 1
  store i32 %101, i32* %4, align 4
  br label %38

102:                                              ; preds = %38
  ret void
}

declare dso_local i32 @__isoc99_scanf(i8*, ...) #1

; Function Attrs: nounwind
declare dso_local noalias i8* @malloc(i64) #2

declare dso_local i32 @printf(i8*, ...) #1


!llvm.module.flags = !{!0}
!llvm.ident = !{!1}

!0 = !{i32 1, !"wchar_size", i32 4}
!1 = !{!"clang version 10.0.0-4ubuntu1 "}
